(lp0
I0
aI1
aI2
aI3
aI4
aI5
aI6
aI7
aI8
aI9
aI10
aI11
aI12
aI13
aI14
aI15
aI16
aI17
aI18
aI19
aI20
aI21
aI22
aI23
aI24
aI25
aI26
aI27
aI28
aI29
aI30
aI31
aI32
aI35
aI37
aI39
aI40
aI41
aI42
aI43
aI44
aI46
aI47
aI48
aI49
aI50
aI51
aI52
aI53
aI54
aI55
aI57
aI58
aI59
aI61
aI64
aI66
aI67
aI69
aI71
aI73
aI74
aI76
aI77
aI78
aI82
aI83
aI84
aI85
aI86
aI87
aI88
aI91
aI92
aI93
aI94
aI98
aI100
aI105
aI107
aI108
aI110
aI111
aI113
aI114
aI116
aI119
aI120
aI127
aI128
aI131
aI133
aI134
aI136
aI142
aI145
aI146
aI148
aI149
aI156
aI159
aI162
aI163
aI164
aI165
aI166
aI167
aI169
aI171
aI173
aI174
aI176
aI179
aI180
aI181
aI182
aI183
aI184
aI185
aI187
aI189
aI198
aI199
aI200
aI202
aI204
aI205
aI207
aI208
aI214
aI223
aI285
aI289
aI307
aI316
aI333
aI364
aI425
aI433
aI448
aI449
aI477
aI479
aI489
aI491
aI498
aI502
aI503
aI504
aI515
aI519
aI524
aI531
aI532
aI536
aI538
aI545
aI549
aI552
aI556
aI561
aI562
aI566
aI569
aI570
aI573
aI576
aI578
aI586
aI589
a.